; Function Attrs: mustprogress nofree norecurse nosync nounwind memory(argmem: write) uwtable
define void @_ZN2cv3reg9MapProjecC2Ev(ptr nocapture noundef nonnull writeonly align 8 dereferenceable(80) %0) unnamed_addr #0 align 2 personality ptr @__gxx_personality_v0 {
  store ptr getelementptr inbounds inrange(-16, 56) (i8, ptr @_ZTVN2cv3reg9MapProjecE, i64 16), ptr %0, align 8
  %2 = getelementptr inbounds i8, ptr %0, i64 8
  tail call void @llvm.memset.p0.i64(ptr noundef nonnull align 8 dereferenceable(72) %2, i8 0, i64 72, i1 false), !alias.scope !4
  br label %3

3:                                                ; preds = %3, %1
  %indvars.iv.i = phi i64 [ 0, %1 ], [ %indvars.iv.next.i, %3 ]
  %4 = shl nuw nsw i64 %indvars.iv.i, 2
  %5 = getelementptr inbounds [9 x double], ptr %2, i64 0, i64 %4
  store double 1.000000e+00, ptr %5, align 8, !alias.scope !4
  %indvars.iv.next.i = add nuw nsw i64 %indvars.iv.i, 1
  %exitcond.not.i = icmp eq i64 %indvars.iv.next.i, 3
  br i1 %exitcond.not.i, label %_ZN2cv4MatxIdLi3ELi3EE3eyeEv.exit, label %3, !llvm.loop !7

_ZN2cv4MatxIdLi3ELi3EE3eyeEv.exit:                ; preds = %3
  ret void
}